---
triple:          'x86_64-apple-darwin'
binary-path:     "/Users/yanghaeseong/C++ Programming/열혈 C 연습/.vscode/main"
relocations:
  - { offsetInCU: 0x3330, offset: 0x3330, size: 0x8, addend: 0x0, symName: __ZNSt3__124__put_character_sequenceB7v160006IcNS_11char_traitsIcEEEERNS_13basic_ostreamIT_T0_EES7_PKS4_m, symObjAddr: 0x550, symBinAddr: 0x100001470, symSize: 0x1F0 }
  - { offsetInCU: 0x69F4, offset: 0x69F4, size: 0x8, addend: 0x0, symName: __ZNSt3__1lsB7v160006INS_11char_traitsIcEEEERNS_13basic_ostreamIcT_EES6_PKc, symObjAddr: 0xC0, symBinAddr: 0x100000FE0, symSize: 0x40 }
  - { offsetInCU: 0x6A3A, offset: 0x6A3A, size: 0x8, addend: 0x0, symName: __ZNSt3__1neB7v160006IP8PracticeEEbRKNS_11__wrap_iterIT_EES7_, symObjAddr: 0x460, symBinAddr: 0x100001380, symSize: 0x30 }
  - { offsetInCU: 0x6A7D, offset: 0x6A7D, size: 0x8, addend: 0x0, symName: __ZNSt3__1eqB7v160006IP8PracticeEEbRKNS_11__wrap_iterIT_EES7_, symObjAddr: 0x4F0, symBinAddr: 0x100001410, symSize: 0x40 }
  - { offsetInCU: 0x6AC0, offset: 0x6AC0, size: 0x8, addend: 0x0, symName: __ZNSt3__116__pad_and_outputB7v160006IcNS_11char_traitsIcEEEENS_19ostreambuf_iteratorIT_T0_EES6_PKS4_S8_S8_RNS_8ios_baseES4_, symObjAddr: 0x790, symBinAddr: 0x1000016B0, symSize: 0x220 }
  - { offsetInCU: 0x6B90, offset: 0x6B90, size: 0x8, addend: 0x0, symName: __ZNSt3__119__debug_db_insert_cB7v160006INS_12basic_stringIcNS_11char_traitsIcEENS_9allocatorIcEEEEEEvPT_, symObjAddr: 0xC30, symBinAddr: 0x100001B50, symSize: 0x10 }
  - { offsetInCU: 0x6BC1, offset: 0x6BC1, size: 0x8, addend: 0x0, symName: __ZNSt3__112__to_addressB7v160006IKcEEPT_S3_, symObjAddr: 0xCD0, symBinAddr: 0x100001BF0, symSize: 0x10 }
  - { offsetInCU: 0x6C29, offset: 0x6C29, size: 0x8, addend: 0x0, symName: __ZNSt3__19use_facetB7v160006INS_5ctypeIcEEEERKT_RKNS_6localeE, symObjAddr: 0xF30, symBinAddr: 0x100001E50, symSize: 0x30 }
  - { offsetInCU: 0x70F8, offset: 0x70F8, size: 0x8, addend: 0x0, symName: __ZNSt3__118__constexpr_strlenB7v160006EPKc, symObjAddr: 0xFC0, symBinAddr: 0x100001EE0, symSize: 0x20 }
  - { offsetInCU: 0x7124, offset: 0x7124, size: 0x8, addend: 0x0, symName: __ZNSt3__119__debug_db_insert_cB7v160006INS_6vectorI8PracticeNS_9allocatorIS2_EEEEEEvPT_, symObjAddr: 0x1070, symBinAddr: 0x100001F90, symSize: 0x10 }
  - { offsetInCU: 0x7155, offset: 0x7155, size: 0x8, addend: 0x0, symName: __ZNSt3__118__debug_db_erase_cB7v160006INS_6vectorI8PracticeNS_9allocatorIS2_EEEEEEvPT_, symObjAddr: 0x1300, symBinAddr: 0x100002220, symSize: 0x10 }
  - { offsetInCU: 0x7186, offset: 0x7186, size: 0x8, addend: 0x0, symName: __ZNSt3__112__to_addressB7v160006I8PracticeEEPT_S3_, symObjAddr: 0x1410, symBinAddr: 0x100002330, symSize: 0x10 }
  - { offsetInCU: 0x71BB, offset: 0x71BB, size: 0x8, addend: 0x0, symName: __ZNSt3__119__libcpp_deallocateB7v160006EPvmm, symObjAddr: 0x1520, symBinAddr: 0x100002440, symSize: 0x30 }
  - { offsetInCU: 0x7203, offset: 0x7203, size: 0x8, addend: 0x0, symName: __ZNSt3__127__do_deallocate_handle_sizeB7v160006IJEEEvPvmDpT_, symObjAddr: 0x1550, symBinAddr: 0x100002470, symSize: 0x20 }
  - { offsetInCU: 0x7241, offset: 0x7241, size: 0x8, addend: 0x0, symName: __ZNSt3__124__libcpp_operator_deleteB7v160006IJPvEEEvDpT_, symObjAddr: 0x1570, symBinAddr: 0x100002490, symSize: 0x20 }
  - { offsetInCU: 0x7276, offset: 0x7276, size: 0x8, addend: 0x0, symName: __ZNSt3__13maxB7v160006ImEERKT_S3_S3_, symObjAddr: 0x1B90, symBinAddr: 0x100002AB0, symSize: 0x30 }
  - { offsetInCU: 0x72B9, offset: 0x72B9, size: 0x8, addend: 0x0, symName: __ZNSt3__13minB7v160006ImEERKT_S3_S3_, symObjAddr: 0x1BC0, symBinAddr: 0x100002AE0, symSize: 0x30 }
  - { offsetInCU: 0x74FD, offset: 0x74FD, size: 0x8, addend: 0x0, symName: __ZNSt3__13minB7v160006ImNS_6__lessImmEEEERKT_S5_S5_T0_, symObjAddr: 0x1C40, symBinAddr: 0x100002B60, symSize: 0x50 }
  - { offsetInCU: 0x7592, offset: 0x7592, size: 0x8, addend: 0x0, symName: __ZNSt3__120__throw_length_errorB7v160006EPKc, symObjAddr: 0x1D20, symBinAddr: 0x100002C40, symSize: 0x70 }
  - { offsetInCU: 0x75BA, offset: 0x75BA, size: 0x8, addend: 0x0, symName: __ZNSt3__13maxB7v160006ImNS_6__lessImmEEEERKT_S5_S5_T0_, symObjAddr: 0x1E00, symBinAddr: 0x100002D20, symSize: 0x50 }
  - { offsetInCU: 0x7614, offset: 0x7614, size: 0x8, addend: 0x0, symName: __ZNSt3__119__allocate_at_leastB7v160006INS_9allocatorI8PracticeEEEENS_19__allocation_resultINS_16allocator_traitsIT_E7pointerEEERS6_m, symObjAddr: 0x1F50, symBinAddr: 0x100002E70, symSize: 0x40 }
  - { offsetInCU: 0x7657, offset: 0x7657, size: 0x8, addend: 0x0, symName: __ZNSt3__117__libcpp_allocateB7v160006Emm, symObjAddr: 0x20C0, symBinAddr: 0x100002FE0, symSize: 0x20 }
  - { offsetInCU: 0x7694, offset: 0x7694, size: 0x8, addend: 0x0, symName: __ZNSt3__121__libcpp_operator_newB7v160006IJmEEEPvDpT_, symObjAddr: 0x20E0, symBinAddr: 0x100003000, symSize: 0x20 }
  - { offsetInCU: 0x76CD, offset: 0x76CD, size: 0x8, addend: 0x0, symName: __ZNSt3__142__uninitialized_allocator_move_if_noexceptB7v160006INS_9allocatorI8PracticeEENS_16reverse_iteratorIPS2_EES6_S2_vEET1_RT_T0_SA_S7_, symObjAddr: 0x2160, symBinAddr: 0x100003080, symSize: 0x70 }
  - { offsetInCU: 0x7749, offset: 0x7749, size: 0x8, addend: 0x0, symName: __ZNSt3__14swapB7v160006IP8PracticeEENS_9enable_ifIXaasr21is_move_constructibleIT_EE5valuesr18is_move_assignableIS4_EE5valueEvE4typeERS4_S7_, symObjAddr: 0x2220, symBinAddr: 0x100003140, symSize: 0x40 }
  - { offsetInCU: 0x779A, offset: 0x779A, size: 0x8, addend: 0x0, symName: __ZNSt3__125__debug_db_invalidate_allB7v160006INS_6vectorI8PracticeNS_9allocatorIS2_EEEEEEvPT_, symObjAddr: 0x2310, symBinAddr: 0x100003230, symSize: 0x10 }
  - { offsetInCU: 0x77CB, offset: 0x77CB, size: 0x8, addend: 0x0, symName: __ZNSt3__14moveB7v160006INS_16reverse_iteratorIP8PracticeEES4_EET0_T_S6_S5_, symObjAddr: 0x2320, symBinAddr: 0x100003240, symSize: 0x80 }
  - { offsetInCU: 0x7825, offset: 0x7825, size: 0x8, addend: 0x0, symName: __ZNSt3__16__moveB7v160006INS_17_ClassicAlgPolicyENS_16reverse_iteratorIP8PracticeEES5_S5_EENS_4pairIT0_T2_EES7_T1_S8_, symObjAddr: 0x23A0, symBinAddr: 0x1000032C0, symSize: 0x90 }
  - { offsetInCU: 0x7891, offset: 0x7891, size: 0x8, addend: 0x0, symName: __ZNSt3__123__dispatch_copy_or_moveB7v160006INS_17_ClassicAlgPolicyENS_11__move_loopIS1_EENS_14__move_trivialENS_16reverse_iteratorIP8PracticeEES8_S8_EENS_4pairIT2_T4_EESA_T3_SB_, symObjAddr: 0x2430, symBinAddr: 0x100003350, symSize: 0x90 }
  - { offsetInCU: 0x790F, offset: 0x790F, size: 0x8, addend: 0x0, symName: __ZNSt3__121__unwrap_and_dispatchB7v160006INS_10__overloadINS_11__move_loopINS_17_ClassicAlgPolicyEEENS_14__move_trivialEEENS_16reverse_iteratorIP8PracticeEESA_SA_Li0EEENS_4pairIT0_T2_EESC_T1_SD_, symObjAddr: 0x24C0, symBinAddr: 0x1000033E0, symSize: 0x210 }
  - { offsetInCU: 0x799E, offset: 0x799E, size: 0x8, addend: 0x0, symName: __ZNSt3__114__unwrap_rangeB7v160006INS_16reverse_iteratorIP8PracticeEES4_EENS_4pairIT0_S6_EET_S8_, symObjAddr: 0x26D0, symBinAddr: 0x1000035F0, symSize: 0x90 }
  - { offsetInCU: 0x7B19, offset: 0x7B19, size: 0x8, addend: 0x0, symName: __ZNSt3__113__unwrap_iterB7v160006INS_16reverse_iteratorIP8PracticeEENS_18__unwrap_iter_implIS4_Lb0EEELi0EEEDTclsrT0_8__unwrapclsr3stdE7declvalIT_EEEES8_, symObjAddr: 0x2810, symBinAddr: 0x100003730, symSize: 0x40 }
  - { offsetInCU: 0x7B5D, offset: 0x7B5D, size: 0x8, addend: 0x0, symName: __ZNSt3__19make_pairB7v160006INS_16reverse_iteratorIP8PracticeEES4_EENS_4pairINS_18__unwrap_ref_decayIT_E4typeENS6_IT0_E4typeEEEOS7_OSA_, symObjAddr: 0x2850, symBinAddr: 0x100003770, symSize: 0x30 }
  - { offsetInCU: 0x7BAC, offset: 0x7BAC, size: 0x8, addend: 0x0, symName: __ZNSt3__114__rewrap_rangeB7v160006INS_16reverse_iteratorIP8PracticeEES4_EET_S5_T0_, symObjAddr: 0x2880, symBinAddr: 0x1000037A0, symSize: 0x60 }
  - { offsetInCU: 0x7BF8, offset: 0x7BF8, size: 0x8, addend: 0x0, symName: __ZNSt3__113__rewrap_iterB7v160006INS_16reverse_iteratorIP8PracticeEES4_NS_18__unwrap_iter_implIS4_Lb0EEEEET_S7_T0_, symObjAddr: 0x28E0, symBinAddr: 0x100003800, symSize: 0x70 }
  - { offsetInCU: 0x7C4D, offset: 0x7C4D, size: 0x8, addend: 0x0, symName: __ZNSt3__1neB7v160006IP8PracticeS2_EEbRKNS_16reverse_iteratorIT_EERKNS3_IT0_EE, symObjAddr: 0x2950, symBinAddr: 0x100003870, symSize: 0x40 }
  - { offsetInCU: 0x7FE0, offset: 0x7FE0, size: 0x8, addend: 0x0, symName: __ZSt28__throw_bad_array_new_lengthB7v160006v, symObjAddr: 0x2080, symBinAddr: 0x100002FA0, symSize: 0x40 }
  - { offsetInCU: 0x8605, offset: 0x8605, size: 0x8, addend: 0x0, symName: __ZNSt3__16vectorI8PracticeNS_9allocatorIS1_EEE26__swap_out_circular_bufferERNS_14__split_bufferIS1_RS3_EE, symObjAddr: 0x19C0, symBinAddr: 0x1000028E0, symSize: 0x130 }
  - { offsetInCU: 0xAB24, offset: 0xAB24, size: 0x8, addend: 0x0, symName: __Z5print8Practice, symObjAddr: 0x0, symBinAddr: 0x100000F20, symSize: 0xC0 }
  - { offsetInCU: 0xAB4D, offset: 0xAB4D, size: 0x8, addend: 0x0, symName: _main, symObjAddr: 0x100, symBinAddr: 0x100001020, symSize: 0x280 }
  - { offsetInCU: 0xABDC, offset: 0xABDC, size: 0x8, addend: 0x0, symName: __ZNSt3__16vectorI8PracticeNS_9allocatorIS1_EEEC1B7v160006Ev, symObjAddr: 0x380, symBinAddr: 0x1000012A0, symSize: 0x20 }
  - { offsetInCU: 0xAC04, offset: 0xAC04, size: 0x8, addend: 0x0, symName: __ZNSt3__16vectorI8PracticeNS_9allocatorIS1_EEE9push_backB7v160006EOS1_, symObjAddr: 0x3A0, symBinAddr: 0x1000012C0, symSize: 0x60 }
  - { offsetInCU: 0xAC39, offset: 0xAC39, size: 0x8, addend: 0x0, symName: __ZNSt3__16vectorI8PracticeNS_9allocatorIS1_EEE5beginB7v160006Ev, symObjAddr: 0x400, symBinAddr: 0x100001320, symSize: 0x30 }
  - { offsetInCU: 0xAC5F, offset: 0xAC5F, size: 0x8, addend: 0x0, symName: __ZNSt3__16vectorI8PracticeNS_9allocatorIS1_EEE3endB7v160006Ev, symObjAddr: 0x430, symBinAddr: 0x100001350, symSize: 0x30 }
  - { offsetInCU: 0xAC86, offset: 0xAC86, size: 0x8, addend: 0x0, symName: __ZNKSt3__111__wrap_iterIP8PracticeEdeB7v160006Ev, symObjAddr: 0x490, symBinAddr: 0x1000013B0, symSize: 0x20 }
  - { offsetInCU: 0xACAB, offset: 0xACAB, size: 0x8, addend: 0x0, symName: __ZNSt3__111__wrap_iterIP8PracticeEppB7v160006Ev, symObjAddr: 0x4B0, symBinAddr: 0x1000013D0, symSize: 0x20 }
  - { offsetInCU: 0xACD0, offset: 0xACD0, size: 0x8, addend: 0x0, symName: __ZNSt3__16vectorI8PracticeNS_9allocatorIS1_EEED1B7v160006Ev, symObjAddr: 0x4D0, symBinAddr: 0x1000013F0, symSize: 0x20 }
  - { offsetInCU: 0xACF9, offset: 0xACF9, size: 0x8, addend: 0x0, symName: __ZNKSt3__111__wrap_iterIP8PracticeE4baseB7v160006Ev, symObjAddr: 0x530, symBinAddr: 0x100001450, symSize: 0x20 }
  - { offsetInCU: 0xAD1E, offset: 0xAD1E, size: 0x8, addend: 0x0, symName: __ZNSt3__111char_traitsIcE6lengthEPKc, symObjAddr: 0x740, symBinAddr: 0x100001660, symSize: 0x30 }
  - { offsetInCU: 0xAD5F, offset: 0xAD5F, size: 0x8, addend: 0x0, symName: __ZNKSt3__113basic_ostreamIcNS_11char_traitsIcEEE6sentrycvbB7v160006Ev, symObjAddr: 0x770, symBinAddr: 0x100001690, symSize: 0x20 }
  - { offsetInCU: 0xAD84, offset: 0xAD84, size: 0x8, addend: 0x0, symName: __ZNSt3__119ostreambuf_iteratorIcNS_11char_traitsIcEEEC1B7v160006ERNS_13basic_ostreamIcS2_EE, symObjAddr: 0x9B0, symBinAddr: 0x1000018D0, symSize: 0x30 }
  - { offsetInCU: 0xADBA, offset: 0xADBA, size: 0x8, addend: 0x0, symName: __ZNKSt3__18ios_base5flagsB7v160006Ev, symObjAddr: 0x9E0, symBinAddr: 0x100001900, symSize: 0x20 }
  - { offsetInCU: 0xADE0, offset: 0xADE0, size: 0x8, addend: 0x0, symName: __ZNKSt3__19basic_iosIcNS_11char_traitsIcEEE4fillB7v160006Ev, symObjAddr: 0xA00, symBinAddr: 0x100001920, symSize: 0x70 }
  - { offsetInCU: 0xAE07, offset: 0xAE07, size: 0x8, addend: 0x0, symName: __ZNKSt3__119ostreambuf_iteratorIcNS_11char_traitsIcEEE6failedB7v160006Ev, symObjAddr: 0xA70, symBinAddr: 0x100001990, symSize: 0x20 }
  - { offsetInCU: 0xAE2C, offset: 0xAE2C, size: 0x8, addend: 0x0, symName: __ZNSt3__19basic_iosIcNS_11char_traitsIcEEE8setstateB7v160006Ej, symObjAddr: 0xA90, symBinAddr: 0x1000019B0, symSize: 0x30 }
  - { offsetInCU: 0xAE5F, offset: 0xAE5F, size: 0x8, addend: 0x0, symName: __ZNKSt3__18ios_base5widthB7v160006Ev, symObjAddr: 0xAD0, symBinAddr: 0x1000019F0, symSize: 0x20 }
  - { offsetInCU: 0xAE86, offset: 0xAE86, size: 0x8, addend: 0x0, symName: __ZNSt3__115basic_streambufIcNS_11char_traitsIcEEE5sputnB7v160006EPKcl, symObjAddr: 0xAF0, symBinAddr: 0x100001A10, symSize: 0x30 }
  - { offsetInCU: 0xAEC7, offset: 0xAEC7, size: 0x8, addend: 0x0, symName: __ZNSt3__112basic_stringIcNS_11char_traitsIcEENS_9allocatorIcEEEC1B7v160006Emc, symObjAddr: 0xB20, symBinAddr: 0x100001A40, symSize: 0x30 }
  - { offsetInCU: 0xAF0E, offset: 0xAF0E, size: 0x8, addend: 0x0, symName: __ZNKSt3__112basic_stringIcNS_11char_traitsIcEENS_9allocatorIcEEE4dataB7v160006Ev, symObjAddr: 0xB50, symBinAddr: 0x100001A70, symSize: 0x30 }
  - { offsetInCU: 0xAF32, offset: 0xAF32, size: 0x8, addend: 0x0, symName: __ZNSt3__18ios_base5widthB7v160006El, symObjAddr: 0xB80, symBinAddr: 0x100001AA0, symSize: 0x30 }
  - { offsetInCU: 0xAF77, offset: 0xAF77, size: 0x8, addend: 0x0, symName: __ZNSt3__112basic_stringIcNS_11char_traitsIcEENS_9allocatorIcEEEC2B7v160006Emc, symObjAddr: 0xBB0, symBinAddr: 0x100001AD0, symSize: 0x50 }
  - { offsetInCU: 0xAFC3, offset: 0xAFC3, size: 0x8, addend: 0x0, symName: __ZNSt3__117__compressed_pairINS_12basic_stringIcNS_11char_traitsIcEENS_9allocatorIcEEE5__repES5_EC1B7v160006INS_18__default_init_tagESA_EEOT_OT0_, symObjAddr: 0xC00, symBinAddr: 0x100001B20, symSize: 0x30 }
  - { offsetInCU: 0xB01A, offset: 0xB01A, size: 0x8, addend: 0x0, symName: __ZNSt3__117__compressed_pairINS_12basic_stringIcNS_11char_traitsIcEENS_9allocatorIcEEE5__repES5_EC2B7v160006INS_18__default_init_tagESA_EEOT_OT0_, symObjAddr: 0xC40, symBinAddr: 0x100001B60, symSize: 0x30 }
  - { offsetInCU: 0xB071, offset: 0xB071, size: 0x8, addend: 0x0, symName: __ZNSt3__122__compressed_pair_elemINS_12basic_stringIcNS_11char_traitsIcEENS_9allocatorIcEEE5__repELi0ELb0EEC2B7v160006ENS_18__default_init_tagE, symObjAddr: 0xC70, symBinAddr: 0x100001B90, symSize: 0x10 }
  - { offsetInCU: 0xB0A5, offset: 0xB0A5, size: 0x8, addend: 0x0, symName: __ZNSt3__122__compressed_pair_elemINS_9allocatorIcEELi1ELb1EEC2B7v160006ENS_18__default_init_tagE, symObjAddr: 0xC80, symBinAddr: 0x100001BA0, symSize: 0x20 }
  - { offsetInCU: 0xB0D9, offset: 0xB0D9, size: 0x8, addend: 0x0, symName: __ZNSt3__19allocatorIcEC2B7v160006Ev, symObjAddr: 0xCA0, symBinAddr: 0x100001BC0, symSize: 0x20 }
  - { offsetInCU: 0xB102, offset: 0xB102, size: 0x8, addend: 0x0, symName: __ZNSt3__116__non_trivial_ifILb1ENS_9allocatorIcEEEC2B7v160006Ev, symObjAddr: 0xCC0, symBinAddr: 0x100001BE0, symSize: 0x10 }
  - { offsetInCU: 0xB12B, offset: 0xB12B, size: 0x8, addend: 0x0, symName: __ZNKSt3__112basic_stringIcNS_11char_traitsIcEENS_9allocatorIcEEE13__get_pointerB7v160006Ev, symObjAddr: 0xCE0, symBinAddr: 0x100001C00, symSize: 0x50 }
  - { offsetInCU: 0xB150, offset: 0xB150, size: 0x8, addend: 0x0, symName: __ZNKSt3__112basic_stringIcNS_11char_traitsIcEENS_9allocatorIcEEE9__is_longB7v160006Ev, symObjAddr: 0xD30, symBinAddr: 0x100001C50, symSize: 0x30 }
  - { offsetInCU: 0xB175, offset: 0xB175, size: 0x8, addend: 0x0, symName: __ZNKSt3__112basic_stringIcNS_11char_traitsIcEENS_9allocatorIcEEE18__get_long_pointerB7v160006Ev, symObjAddr: 0xD60, symBinAddr: 0x100001C80, symSize: 0x20 }
  - { offsetInCU: 0xB19A, offset: 0xB19A, size: 0x8, addend: 0x0, symName: __ZNKSt3__112basic_stringIcNS_11char_traitsIcEENS_9allocatorIcEEE19__get_short_pointerB7v160006Ev, symObjAddr: 0xD80, symBinAddr: 0x100001CA0, symSize: 0x30 }
  - { offsetInCU: 0xB1BF, offset: 0xB1BF, size: 0x8, addend: 0x0, symName: __ZNKSt3__117__compressed_pairINS_12basic_stringIcNS_11char_traitsIcEENS_9allocatorIcEEE5__repES5_E5firstB7v160006Ev, symObjAddr: 0xDB0, symBinAddr: 0x100001CD0, symSize: 0x20 }
  - { offsetInCU: 0xB1E4, offset: 0xB1E4, size: 0x8, addend: 0x0, symName: __ZNKSt3__122__compressed_pair_elemINS_12basic_stringIcNS_11char_traitsIcEENS_9allocatorIcEEE5__repELi0ELb0EE5__getB7v160006Ev, symObjAddr: 0xDD0, symBinAddr: 0x100001CF0, symSize: 0x10 }
  - { offsetInCU: 0xB209, offset: 0xB209, size: 0x8, addend: 0x0, symName: __ZNSt3__114pointer_traitsIPKcE10pointer_toB7v160006ERS1_, symObjAddr: 0xDE0, symBinAddr: 0x100001D00, symSize: 0x10 }
  - { offsetInCU: 0xB22C, offset: 0xB22C, size: 0x8, addend: 0x0, symName: __ZNSt3__119ostreambuf_iteratorIcNS_11char_traitsIcEEEC2B7v160006ERNS_13basic_ostreamIcS2_EE, symObjAddr: 0xDF0, symBinAddr: 0x100001D10, symSize: 0x50 }
  - { offsetInCU: 0xB262, offset: 0xB262, size: 0x8, addend: 0x0, symName: __ZNKSt3__19basic_iosIcNS_11char_traitsIcEEE5rdbufB7v160006Ev, symObjAddr: 0xE40, symBinAddr: 0x100001D60, symSize: 0x20 }
  - { offsetInCU: 0xB289, offset: 0xB289, size: 0x8, addend: 0x0, symName: __ZNKSt3__18ios_base5rdbufB7v160006Ev, symObjAddr: 0xE60, symBinAddr: 0x100001D80, symSize: 0x20 }
  - { offsetInCU: 0xB2AE, offset: 0xB2AE, size: 0x8, addend: 0x0, symName: __ZNSt3__111char_traitsIcE11eq_int_typeEii, symObjAddr: 0xE80, symBinAddr: 0x100001DA0, symSize: 0x20 }
  - { offsetInCU: 0xB2DF, offset: 0xB2DF, size: 0x8, addend: 0x0, symName: __ZNSt3__111char_traitsIcE3eofEv, symObjAddr: 0xEA0, symBinAddr: 0x100001DC0, symSize: 0x10 }
  - { offsetInCU: 0xB2F2, offset: 0xB2F2, size: 0x8, addend: 0x0, symName: __ZNKSt3__19basic_iosIcNS_11char_traitsIcEEE5widenB7v160006Ec, symObjAddr: 0xEB0, symBinAddr: 0x100001DD0, symSize: 0x80 }
  - { offsetInCU: 0xB35F, offset: 0xB35F, size: 0x8, addend: 0x0, symName: __ZNKSt3__15ctypeIcE5widenB7v160006Ec, symObjAddr: 0xF60, symBinAddr: 0x100001E80, symSize: 0x30 }
  - { offsetInCU: 0xB392, offset: 0xB392, size: 0x8, addend: 0x0, symName: __ZNSt3__18ios_base8setstateB7v160006Ej, symObjAddr: 0xF90, symBinAddr: 0x100001EB0, symSize: 0x30 }
  - { offsetInCU: 0xB3C8, offset: 0xB3C8, size: 0x8, addend: 0x0, symName: __ZNSt3__16vectorI8PracticeNS_9allocatorIS1_EEEC2B7v160006Ev, symObjAddr: 0xFE0, symBinAddr: 0x100001F00, symSize: 0x60 }
  - { offsetInCU: 0xB3F6, offset: 0xB3F6, size: 0x8, addend: 0x0, symName: __ZNSt3__117__compressed_pairIP8PracticeNS_9allocatorIS1_EEEC1B7v160006IDnNS_18__default_init_tagEEEOT_OT0_, symObjAddr: 0x1040, symBinAddr: 0x100001F60, symSize: 0x30 }
  - { offsetInCU: 0xB44D, offset: 0xB44D, size: 0x8, addend: 0x0, symName: __ZNSt3__117__compressed_pairIP8PracticeNS_9allocatorIS1_EEEC2B7v160006IDnNS_18__default_init_tagEEEOT_OT0_, symObjAddr: 0x1080, symBinAddr: 0x100001FA0, symSize: 0x40 }
  - { offsetInCU: 0xB4A4, offset: 0xB4A4, size: 0x8, addend: 0x0, symName: __ZNSt3__122__compressed_pair_elemIP8PracticeLi0ELb0EEC2B7v160006IDnvEEOT_, symObjAddr: 0x10C0, symBinAddr: 0x100001FE0, symSize: 0x20 }
  - { offsetInCU: 0xB4E5, offset: 0xB4E5, size: 0x8, addend: 0x0, symName: __ZNSt3__122__compressed_pair_elemINS_9allocatorI8PracticeEELi1ELb1EEC2B7v160006ENS_18__default_init_tagE, symObjAddr: 0x10E0, symBinAddr: 0x100002000, symSize: 0x20 }
  - { offsetInCU: 0xB519, offset: 0xB519, size: 0x8, addend: 0x0, symName: __ZNSt3__19allocatorI8PracticeEC2B7v160006Ev, symObjAddr: 0x1100, symBinAddr: 0x100002020, symSize: 0x20 }
  - { offsetInCU: 0xB542, offset: 0xB542, size: 0x8, addend: 0x0, symName: __ZNSt3__116__non_trivial_ifILb1ENS_9allocatorI8PracticeEEEC2B7v160006Ev, symObjAddr: 0x1120, symBinAddr: 0x100002040, symSize: 0x10 }
  - { offsetInCU: 0xB56B, offset: 0xB56B, size: 0x8, addend: 0x0, symName: __ZNSt3__16vectorI8PracticeNS_9allocatorIS1_EEED2B7v160006Ev, symObjAddr: 0x1130, symBinAddr: 0x100002050, symSize: 0x40 }
  - { offsetInCU: 0xB594, offset: 0xB594, size: 0x8, addend: 0x0, symName: __ZNSt3__16vectorI8PracticeNS_9allocatorIS1_EEE16__destroy_vectorC1ERS4_, symObjAddr: 0x1170, symBinAddr: 0x100002090, symSize: 0x30 }
  - { offsetInCU: 0xB5CC, offset: 0xB5CC, size: 0x8, addend: 0x0, symName: __ZNSt3__16vectorI8PracticeNS_9allocatorIS1_EEE16__destroy_vectorclB7v160006Ev, symObjAddr: 0x11A0, symBinAddr: 0x1000020C0, symSize: 0x90 }
  - { offsetInCU: 0xB5F1, offset: 0xB5F1, size: 0x8, addend: 0x0, symName: __ZNSt3__16vectorI8PracticeNS_9allocatorIS1_EEE16__destroy_vectorC2ERS4_, symObjAddr: 0x1230, symBinAddr: 0x100002150, symSize: 0x20 }
  - { offsetInCU: 0xB629, offset: 0xB629, size: 0x8, addend: 0x0, symName: __ZNKSt3__16vectorI8PracticeNS_9allocatorIS1_EEE17__annotate_deleteB7v160006Ev, symObjAddr: 0x1250, symBinAddr: 0x100002170, symSize: 0xB0 }
  - { offsetInCU: 0xB64E, offset: 0xB64E, size: 0x8, addend: 0x0, symName: __ZNSt3__16vectorI8PracticeNS_9allocatorIS1_EEE7__clearB7v160006Ev, symObjAddr: 0x1310, symBinAddr: 0x100002230, symSize: 0x20 }
  - { offsetInCU: 0xB673, offset: 0xB673, size: 0x8, addend: 0x0, symName: __ZNSt3__116allocator_traitsINS_9allocatorI8PracticeEEE10deallocateB7v160006ERS3_PS2_m, symObjAddr: 0x1330, symBinAddr: 0x100002250, symSize: 0x30 }
  - { offsetInCU: 0xB6B5, offset: 0xB6B5, size: 0x8, addend: 0x0, symName: __ZNSt3__16vectorI8PracticeNS_9allocatorIS1_EEE7__allocB7v160006Ev, symObjAddr: 0x1360, symBinAddr: 0x100002280, symSize: 0x20 }
  - { offsetInCU: 0xB6DA, offset: 0xB6DA, size: 0x8, addend: 0x0, symName: __ZNKSt3__16vectorI8PracticeNS_9allocatorIS1_EEE8capacityB7v160006Ev, symObjAddr: 0x1380, symBinAddr: 0x1000022A0, symSize: 0x30 }
  - { offsetInCU: 0xB6FF, offset: 0xB6FF, size: 0x8, addend: 0x0, symName: __ZNKSt3__16vectorI8PracticeNS_9allocatorIS1_EEE31__annotate_contiguous_containerB7v160006EPKvS6_S6_S6_, symObjAddr: 0x13B0, symBinAddr: 0x1000022D0, symSize: 0x20 }
  - { offsetInCU: 0xB750, offset: 0xB750, size: 0x8, addend: 0x0, symName: __ZNKSt3__16vectorI8PracticeNS_9allocatorIS1_EEE4dataB7v160006Ev, symObjAddr: 0x13D0, symBinAddr: 0x1000022F0, symSize: 0x20 }
  - { offsetInCU: 0xB775, offset: 0xB775, size: 0x8, addend: 0x0, symName: __ZNKSt3__16vectorI8PracticeNS_9allocatorIS1_EEE4sizeB7v160006Ev, symObjAddr: 0x13F0, symBinAddr: 0x100002310, symSize: 0x20 }
  - { offsetInCU: 0xB79A, offset: 0xB79A, size: 0x8, addend: 0x0, symName: __ZNSt3__16vectorI8PracticeNS_9allocatorIS1_EEE22__base_destruct_at_endB7v160006EPS1_, symObjAddr: 0x1420, symBinAddr: 0x100002340, symSize: 0x80 }
  - { offsetInCU: 0xB7DD, offset: 0xB7DD, size: 0x8, addend: 0x0, symName: __ZNSt3__116allocator_traitsINS_9allocatorI8PracticeEEE7destroyB7v160006IS2_vEEvRS3_PT_, symObjAddr: 0x14A0, symBinAddr: 0x1000023C0, symSize: 0x30 }
  - { offsetInCU: 0xB81A, offset: 0xB81A, size: 0x8, addend: 0x0, symName: __ZNSt3__19allocatorI8PracticeE7destroyB7v160006EPS1_, symObjAddr: 0x14D0, symBinAddr: 0x1000023F0, symSize: 0x10 }
  - { offsetInCU: 0xB84D, offset: 0xB84D, size: 0x8, addend: 0x0, symName: __ZNSt3__19allocatorI8PracticeE10deallocateB7v160006EPS1_m, symObjAddr: 0x14E0, symBinAddr: 0x100002400, symSize: 0x40 }
  - { offsetInCU: 0xB88E, offset: 0xB88E, size: 0x8, addend: 0x0, symName: __ZNSt3__117__compressed_pairIP8PracticeNS_9allocatorIS1_EEE6secondB7v160006Ev, symObjAddr: 0x1590, symBinAddr: 0x1000024B0, symSize: 0x20 }
  - { offsetInCU: 0xB8B3, offset: 0xB8B3, size: 0x8, addend: 0x0, symName: __ZNSt3__122__compressed_pair_elemINS_9allocatorI8PracticeEELi1ELb1EE5__getB7v160006Ev, symObjAddr: 0x15B0, symBinAddr: 0x1000024D0, symSize: 0x10 }
  - { offsetInCU: 0xB8D8, offset: 0xB8D8, size: 0x8, addend: 0x0, symName: __ZNKSt3__16vectorI8PracticeNS_9allocatorIS1_EEE9__end_capB7v160006Ev, symObjAddr: 0x15C0, symBinAddr: 0x1000024E0, symSize: 0x20 }
  - { offsetInCU: 0xB8FD, offset: 0xB8FD, size: 0x8, addend: 0x0, symName: __ZNKSt3__117__compressed_pairIP8PracticeNS_9allocatorIS1_EEE5firstB7v160006Ev, symObjAddr: 0x15E0, symBinAddr: 0x100002500, symSize: 0x20 }
  - { offsetInCU: 0xB922, offset: 0xB922, size: 0x8, addend: 0x0, symName: __ZNKSt3__122__compressed_pair_elemIP8PracticeLi0ELb0EE5__getB7v160006Ev, symObjAddr: 0x1600, symBinAddr: 0x100002520, symSize: 0x10 }
  - { offsetInCU: 0xB947, offset: 0xB947, size: 0x8, addend: 0x0, symName: __ZNSt3__16vectorI8PracticeNS_9allocatorIS1_EEE9__end_capB7v160006Ev, symObjAddr: 0x1610, symBinAddr: 0x100002530, symSize: 0x20 }
  - { offsetInCU: 0xB971, offset: 0xB971, size: 0x8, addend: 0x0, symName: __ZNSt3__16vectorI8PracticeNS_9allocatorIS1_EEE22__construct_one_at_endB7v160006IJS1_EEEvDpOT_, symObjAddr: 0x1630, symBinAddr: 0x100002550, symSize: 0x90 }
  - { offsetInCU: 0xB9BE, offset: 0xB9BE, size: 0x8, addend: 0x0, symName: __ZNSt3__16vectorI8PracticeNS_9allocatorIS1_EEE21__push_back_slow_pathIS1_EEvOT_, symObjAddr: 0x16C0, symBinAddr: 0x1000025E0, symSize: 0xD0 }
  - { offsetInCU: 0xBA1B, offset: 0xBA1B, size: 0x8, addend: 0x0, symName: __ZNSt3__117__compressed_pairIP8PracticeNS_9allocatorIS1_EEE5firstB7v160006Ev, symObjAddr: 0x1790, symBinAddr: 0x1000026B0, symSize: 0x20 }
  - { offsetInCU: 0xBA40, offset: 0xBA40, size: 0x8, addend: 0x0, symName: __ZNSt3__122__compressed_pair_elemIP8PracticeLi0ELb0EE5__getB7v160006Ev, symObjAddr: 0x17B0, symBinAddr: 0x1000026D0, symSize: 0x10 }
  - { offsetInCU: 0xBA7E, offset: 0xBA7E, size: 0x8, addend: 0x0, symName: __ZNSt3__16vectorI8PracticeNS_9allocatorIS1_EEE21_ConstructTransactionC1B7v160006ERS4_m, symObjAddr: 0x17C0, symBinAddr: 0x1000026E0, symSize: 0x30 }
  - { offsetInCU: 0xBAC5, offset: 0xBAC5, size: 0x8, addend: 0x0, symName: __ZNSt3__116allocator_traitsINS_9allocatorI8PracticeEEE9constructB7v160006IS2_JS2_EvEEvRS3_PT_DpOT0_, symObjAddr: 0x17F0, symBinAddr: 0x100002710, symSize: 0x30 }
  - { offsetInCU: 0xBB1C, offset: 0xBB1C, size: 0x8, addend: 0x0, symName: __ZNSt3__16vectorI8PracticeNS_9allocatorIS1_EEE21_ConstructTransactionD1B7v160006Ev, symObjAddr: 0x1820, symBinAddr: 0x100002740, symSize: 0x20 }
  - { offsetInCU: 0xBB45, offset: 0xBB45, size: 0x8, addend: 0x0, symName: __ZNSt3__16vectorI8PracticeNS_9allocatorIS1_EEE21_ConstructTransactionC2B7v160006ERS4_m, symObjAddr: 0x1840, symBinAddr: 0x100002760, symSize: 0x40 }
  - { offsetInCU: 0xBB8C, offset: 0xBB8C, size: 0x8, addend: 0x0, symName: __ZNSt3__19allocatorI8PracticeE9constructB7v160006IS1_JS1_EEEvPT_DpOT0_, symObjAddr: 0x1880, symBinAddr: 0x1000027A0, symSize: 0x40 }
  - { offsetInCU: 0xBBE1, offset: 0xBBE1, size: 0x8, addend: 0x0, symName: __ZNSt3__16vectorI8PracticeNS_9allocatorIS1_EEE21_ConstructTransactionD2B7v160006Ev, symObjAddr: 0x18C0, symBinAddr: 0x1000027E0, symSize: 0x20 }
  - { offsetInCU: 0xBC09, offset: 0xBC09, size: 0x8, addend: 0x0, symName: __ZNKSt3__16vectorI8PracticeNS_9allocatorIS1_EEE11__recommendB7v160006Em, symObjAddr: 0x18E0, symBinAddr: 0x100002800, symSize: 0xA0 }
  - { offsetInCU: 0xBC5D, offset: 0xBC5D, size: 0x8, addend: 0x0, symName: __ZNSt3__114__split_bufferI8PracticeRNS_9allocatorIS1_EEEC1EmmS4_, symObjAddr: 0x1980, symBinAddr: 0x1000028A0, symSize: 0x40 }
  - { offsetInCU: 0xBCB2, offset: 0xBCB2, size: 0x8, addend: 0x0, symName: __ZNSt3__114__split_bufferI8PracticeRNS_9allocatorIS1_EEED1Ev, symObjAddr: 0x1AF0, symBinAddr: 0x100002A10, symSize: 0x20 }
  - { offsetInCU: 0xBCDC, offset: 0xBCDC, size: 0x8, addend: 0x0, symName: __ZNKSt3__16vectorI8PracticeNS_9allocatorIS1_EEE8max_sizeEv, symObjAddr: 0x1B10, symBinAddr: 0x100002A30, symSize: 0x60 }
  - { offsetInCU: 0xBD03, offset: 0xBD03, size: 0x8, addend: 0x0, symName: __ZNKSt3__16vectorI8PracticeNS_9allocatorIS1_EEE20__throw_length_errorB7v160006Ev, symObjAddr: 0x1B70, symBinAddr: 0x100002A90, symSize: 0x20 }
  - { offsetInCU: 0xBD32, offset: 0xBD32, size: 0x8, addend: 0x0, symName: __ZNSt3__116allocator_traitsINS_9allocatorI8PracticeEEE8max_sizeB7v160006IS3_vEEmRKS3_, symObjAddr: 0x1BF0, symBinAddr: 0x100002B10, symSize: 0x20 }
  - { offsetInCU: 0xBD60, offset: 0xBD60, size: 0x8, addend: 0x0, symName: __ZNKSt3__16vectorI8PracticeNS_9allocatorIS1_EEE7__allocB7v160006Ev, symObjAddr: 0x1C10, symBinAddr: 0x100002B30, symSize: 0x20 }
  - { offsetInCU: 0xBD85, offset: 0xBD85, size: 0x8, addend: 0x0, symName: __ZNSt3__114numeric_limitsIlE3maxB7v160006Ev, symObjAddr: 0x1C30, symBinAddr: 0x100002B50, symSize: 0x10 }
  - { offsetInCU: 0xBDAD, offset: 0xBDAD, size: 0x8, addend: 0x0, symName: __ZNKSt3__16__lessImmEclB7v160006ERKmS3_, symObjAddr: 0x1C90, symBinAddr: 0x100002BB0, symSize: 0x30 }
  - { offsetInCU: 0xBDEE, offset: 0xBDEE, size: 0x8, addend: 0x0, symName: __ZNKSt3__19allocatorI8PracticeE8max_sizeB7v160006Ev, symObjAddr: 0x1CC0, symBinAddr: 0x100002BE0, symSize: 0x20 }
  - { offsetInCU: 0xBE13, offset: 0xBE13, size: 0x8, addend: 0x0, symName: __ZNKSt3__117__compressed_pairIP8PracticeNS_9allocatorIS1_EEE6secondB7v160006Ev, symObjAddr: 0x1CE0, symBinAddr: 0x100002C00, symSize: 0x20 }
  - { offsetInCU: 0xBE38, offset: 0xBE38, size: 0x8, addend: 0x0, symName: __ZNKSt3__122__compressed_pair_elemINS_9allocatorI8PracticeEELi1ELb1EE5__getB7v160006Ev, symObjAddr: 0x1D00, symBinAddr: 0x100002C20, symSize: 0x10 }
  - { offsetInCU: 0xBE5D, offset: 0xBE5D, size: 0x8, addend: 0x0, symName: __ZNSt3__123__libcpp_numeric_limitsIlLb1EE3maxB7v160006Ev, symObjAddr: 0x1D10, symBinAddr: 0x100002C30, symSize: 0x10 }
  - { offsetInCU: 0xBE71, offset: 0xBE71, size: 0x8, addend: 0x0, symName: __ZNSt12length_errorC1B7v160006EPKc, symObjAddr: 0x1D90, symBinAddr: 0x100002CB0, symSize: 0x30 }
  - { offsetInCU: 0xBEA8, offset: 0xBEA8, size: 0x8, addend: 0x0, symName: __ZNSt12length_errorC2B7v160006EPKc, symObjAddr: 0x1DC0, symBinAddr: 0x100002CE0, symSize: 0x40 }
  - { offsetInCU: 0xBEDF, offset: 0xBEDF, size: 0x8, addend: 0x0, symName: __ZNSt3__114__split_bufferI8PracticeRNS_9allocatorIS1_EEEC2EmmS4_, symObjAddr: 0x1E50, symBinAddr: 0x100002D70, symSize: 0xD0 }
  - { offsetInCU: 0xBF52, offset: 0xBF52, size: 0x8, addend: 0x0, symName: __ZNSt3__117__compressed_pairIP8PracticeRNS_9allocatorIS1_EEEC1B7v160006IDnS5_EEOT_OT0_, symObjAddr: 0x1F20, symBinAddr: 0x100002E40, symSize: 0x30 }
  - { offsetInCU: 0xBFA9, offset: 0xBFA9, size: 0x8, addend: 0x0, symName: __ZNSt3__114__split_bufferI8PracticeRNS_9allocatorIS1_EEE7__allocB7v160006Ev, symObjAddr: 0x1F90, symBinAddr: 0x100002EB0, symSize: 0x20 }
  - { offsetInCU: 0xBFCE, offset: 0xBFCE, size: 0x8, addend: 0x0, symName: __ZNSt3__114__split_bufferI8PracticeRNS_9allocatorIS1_EEE9__end_capB7v160006Ev, symObjAddr: 0x1FB0, symBinAddr: 0x100002ED0, symSize: 0x20 }
  - { offsetInCU: 0xBFF3, offset: 0xBFF3, size: 0x8, addend: 0x0, symName: __ZNSt3__117__compressed_pairIP8PracticeRNS_9allocatorIS1_EEEC2B7v160006IDnS5_EEOT_OT0_, symObjAddr: 0x1FD0, symBinAddr: 0x100002EF0, symSize: 0x40 }
  - { offsetInCU: 0xC04A, offset: 0xC04A, size: 0x8, addend: 0x0, symName: __ZNSt3__122__compressed_pair_elemIRNS_9allocatorI8PracticeEELi1ELb0EEC2B7v160006IS4_vEEOT_, symObjAddr: 0x2010, symBinAddr: 0x100002F30, symSize: 0x20 }
  - { offsetInCU: 0xC08B, offset: 0xC08B, size: 0x8, addend: 0x0, symName: __ZNSt3__19allocatorI8PracticeE8allocateB7v160006Em, symObjAddr: 0x2030, symBinAddr: 0x100002F50, symSize: 0x50 }
  - { offsetInCU: 0xC0BE, offset: 0xC0BE, size: 0x8, addend: 0x0, symName: __ZNSt3__117__compressed_pairIP8PracticeRNS_9allocatorIS1_EEE6secondB7v160006Ev, symObjAddr: 0x2100, symBinAddr: 0x100003020, symSize: 0x20 }
  - { offsetInCU: 0xC0E3, offset: 0xC0E3, size: 0x8, addend: 0x0, symName: __ZNSt3__122__compressed_pair_elemIRNS_9allocatorI8PracticeEELi1ELb0EE5__getB7v160006Ev, symObjAddr: 0x2120, symBinAddr: 0x100003040, symSize: 0x20 }
  - { offsetInCU: 0xC108, offset: 0xC108, size: 0x8, addend: 0x0, symName: __ZNSt3__117__compressed_pairIP8PracticeRNS_9allocatorIS1_EEE5firstB7v160006Ev, symObjAddr: 0x2140, symBinAddr: 0x100003060, symSize: 0x20 }
  - { offsetInCU: 0xC12D, offset: 0xC12D, size: 0x8, addend: 0x0, symName: __ZNSt3__116reverse_iteratorIP8PracticeEC1B7v160006ES2_, symObjAddr: 0x21D0, symBinAddr: 0x1000030F0, symSize: 0x30 }
  - { offsetInCU: 0xC164, offset: 0xC164, size: 0x8, addend: 0x0, symName: __ZNKSt3__116reverse_iteratorIP8PracticeE4baseB7v160006Ev, symObjAddr: 0x2200, symBinAddr: 0x100003120, symSize: 0x20 }
  - { offsetInCU: 0xC189, offset: 0xC189, size: 0x8, addend: 0x0, symName: __ZNKSt3__16vectorI8PracticeNS_9allocatorIS1_EEE14__annotate_newB7v160006Em, symObjAddr: 0x2260, symBinAddr: 0x100003180, symSize: 0xB0 }
  - { offsetInCU: 0xC1E0, offset: 0xC1E0, size: 0x8, addend: 0x0, symName: __ZNKSt3__111__move_loopINS_17_ClassicAlgPolicyEEclB7v160006INS_16reverse_iteratorIP8PracticeEES7_S7_EENS_4pairIT_T1_EES9_T0_SA_, symObjAddr: 0x2760, symBinAddr: 0x100003680, symSize: 0xB0 }
  - { offsetInCU: 0xC24A, offset: 0xC24A, size: 0x8, addend: 0x0, symName: __ZNSt3__18_IterOpsINS_17_ClassicAlgPolicyEE11__iter_moveB7v160006IRNS_16reverse_iteratorIP8PracticeEEEENS_9enable_ifIXsr12is_referenceIDTdeclsr3stdE7declvalIRT_EEEEE5valueEDTclsr3stdE4movedeclsr3stdE7declvalISB_EEEEE4typeEOSA_, symObjAddr: 0x2990, symBinAddr: 0x1000038B0, symSize: 0x20 }
  - { offsetInCU: 0xC276, offset: 0xC276, size: 0x8, addend: 0x0, symName: __ZNKSt3__116reverse_iteratorIP8PracticeEdeB7v160006Ev, symObjAddr: 0x29B0, symBinAddr: 0x1000038D0, symSize: 0x30 }
  - { offsetInCU: 0xC2A9, offset: 0xC2A9, size: 0x8, addend: 0x0, symName: __ZNSt3__116reverse_iteratorIP8PracticeEppB7v160006Ev, symObjAddr: 0x29E0, symBinAddr: 0x100003900, symSize: 0x20 }
  - { offsetInCU: 0xC2CE, offset: 0xC2CE, size: 0x8, addend: 0x0, symName: __ZNSt3__18_IterOpsINS_17_ClassicAlgPolicyEE25__validate_iter_referenceB7v160006IRNS_16reverse_iteratorIP8PracticeEEEEvv, symObjAddr: 0x2A00, symBinAddr: 0x100003920, symSize: 0x10 }
  - { offsetInCU: 0xC2EC, offset: 0xC2EC, size: 0x8, addend: 0x0, symName: __ZNSt3__118__unwrap_iter_implINS_16reverse_iteratorIP8PracticeEELb0EE8__unwrapB7v160006ES4_, symObjAddr: 0x2A10, symBinAddr: 0x100003930, symSize: 0x20 }
  - { offsetInCU: 0xC314, offset: 0xC314, size: 0x8, addend: 0x0, symName: __ZNSt3__14pairINS_16reverse_iteratorIP8PracticeEES4_EC1B7v160006IS4_S4_LPv0EEEOT_OT0_, symObjAddr: 0x2A30, symBinAddr: 0x100003950, symSize: 0x30 }
  - { offsetInCU: 0xC371, offset: 0xC371, size: 0x8, addend: 0x0, symName: __ZNSt3__14pairINS_16reverse_iteratorIP8PracticeEES4_EC2B7v160006IS4_S4_LPv0EEEOT_OT0_, symObjAddr: 0x2A60, symBinAddr: 0x100003980, symSize: 0x40 }
  - { offsetInCU: 0xC3CE, offset: 0xC3CE, size: 0x8, addend: 0x0, symName: __ZNSt3__118__unwrap_iter_implINS_16reverse_iteratorIP8PracticeEELb0EE8__rewrapB7v160006ES4_S4_, symObjAddr: 0x2AA0, symBinAddr: 0x1000039C0, symSize: 0x30 }
  - { offsetInCU: 0xC3FC, offset: 0xC3FC, size: 0x8, addend: 0x0, symName: __ZNSt3__116reverse_iteratorIP8PracticeEC2B7v160006ES2_, symObjAddr: 0x2AD0, symBinAddr: 0x1000039F0, symSize: 0x30 }
  - { offsetInCU: 0xC433, offset: 0xC433, size: 0x8, addend: 0x0, symName: __ZNSt3__114__split_bufferI8PracticeRNS_9allocatorIS1_EEED2Ev, symObjAddr: 0x2B00, symBinAddr: 0x100003A20, symSize: 0x70 }
  - { offsetInCU: 0xC45E, offset: 0xC45E, size: 0x8, addend: 0x0, symName: __ZNSt3__114__split_bufferI8PracticeRNS_9allocatorIS1_EEE5clearB7v160006Ev, symObjAddr: 0x2B70, symBinAddr: 0x100003A90, symSize: 0x20 }
  - { offsetInCU: 0xC483, offset: 0xC483, size: 0x8, addend: 0x0, symName: __ZNKSt3__114__split_bufferI8PracticeRNS_9allocatorIS1_EEE8capacityB7v160006Ev, symObjAddr: 0x2B90, symBinAddr: 0x100003AB0, symSize: 0x30 }
  - { offsetInCU: 0xC4A8, offset: 0xC4A8, size: 0x8, addend: 0x0, symName: __ZNSt3__114__split_bufferI8PracticeRNS_9allocatorIS1_EEE17__destruct_at_endB7v160006EPS1_, symObjAddr: 0x2BC0, symBinAddr: 0x100003AE0, symSize: 0x30 }
  - { offsetInCU: 0xC4DA, offset: 0xC4DA, size: 0x8, addend: 0x0, symName: __ZNSt3__114__split_bufferI8PracticeRNS_9allocatorIS1_EEE17__destruct_at_endB7v160006EPS1_NS_17integral_constantIbLb0EEE, symObjAddr: 0x2BF0, symBinAddr: 0x100003B10, symSize: 0x80 }
  - { offsetInCU: 0xC51A, offset: 0xC51A, size: 0x8, addend: 0x0, symName: __ZNKSt3__114__split_bufferI8PracticeRNS_9allocatorIS1_EEE9__end_capB7v160006Ev, symObjAddr: 0x2C70, symBinAddr: 0x100003B90, symSize: 0x20 }
  - { offsetInCU: 0xC53F, offset: 0xC53F, size: 0x8, addend: 0x0, symName: __ZNKSt3__117__compressed_pairIP8PracticeRNS_9allocatorIS1_EEE5firstB7v160006Ev, symObjAddr: 0x2C90, symBinAddr: 0x100003BB0, symSize: 0x20 }
  - { offsetInCU: 0xC564, offset: 0xC564, size: 0x8, addend: 0x0, symName: __ZNSt3__16vectorI8PracticeNS_9allocatorIS1_EEE11__make_iterB7v160006EPS1_, symObjAddr: 0x2CB0, symBinAddr: 0x100003BD0, symSize: 0x30 }
  - { offsetInCU: 0xC598, offset: 0xC598, size: 0x8, addend: 0x0, symName: __ZNSt3__111__wrap_iterIP8PracticeEC1B7v160006EPKvS2_, symObjAddr: 0x2CE0, symBinAddr: 0x100003C00, symSize: 0x30 }
  - { offsetInCU: 0xC5DD, offset: 0xC5DD, size: 0x8, addend: 0x0, symName: __ZNSt3__111__wrap_iterIP8PracticeEC2B7v160006EPKvS2_, symObjAddr: 0x2D10, symBinAddr: 0x100003C30, symSize: 0x1D }
...
